; Function Attrs: mustprogress uwtable
define noundef zeroext i1 @_Z29gmx_omp_check_thread_affinityPPc(ptr noundef writeonly captures(none) initializes((0, 8)) %0) local_unnamed_addr #2 personality ptr @__gxx_personality_v0 {
  %2 = alloca %"class.std::__cxx11::basic_string", align 8
  store ptr null, ptr %0, align 8, !tbaa !4
  %3 = invoke noundef nonnull align 8 dereferenceable(8) ptr @_ZN3gmx17getProgramContextEv()
          to label %4 unwind label %11

4:                                                ; preds = %1
  %5 = load ptr, ptr %3, align 8, !tbaa !9
  %6 = getelementptr inbounds nuw i8, ptr %5, i64 8
  %7 = load ptr, ptr %6, align 8
  %8 = invoke noundef ptr %7(ptr noundef nonnull align 8 dereferenceable(8) %3)
          to label %9 unwind label %11

9:                                                ; preds = %4
  %10 = tail call ptr @getenv(ptr noundef nonnull @.str) #12
  %.not = icmp eq ptr %10, null
  br i1 %.not, label %56, label %22

11:                                               ; preds = %4, %1
  %12 = landingpad { ptr, i32 }
          cleanup
          catch ptr @_ZTISt9exception
  %13 = extractvalue { ptr, i32 } %12, 1
  %14 = tail call i32 @llvm.eh.typeid.for.p0(ptr nonnull @_ZTISt9exception) #12
  %15 = icmp eq i32 %13, %14
  br i1 %15, label %16, label %57

16:                                               ; preds = %11
  %17 = extractvalue { ptr, i32 } %12, 0
  %18 = tail call ptr @__cxa_begin_catch(ptr %17) #12
  invoke void @_ZN3gmx28processExceptionAsFatalErrorERKSt9exception(ptr noundef nonnull align 8 dereferenceable(8) %18) #13
          to label %19 unwind label %20

19:                                               ; preds = %16
  unreachable

20:                                               ; preds = %16
  %21 = landingpad { ptr, i32 }
          cleanup
  invoke void @__cxa_end_catch()
          to label %57 unwind label %58

22:                                               ; preds = %9
  %23 = load i8, ptr %10, align 1, !tbaa !11
  %.not21 = icmp eq i8 %23, 0
  br i1 %.not21, label %56, label %24

24:                                               ; preds = %22
  call void @llvm.lifetime.start.p0(i64 32, ptr nonnull %2) #12
  invoke void (ptr, ptr, ...) @_ZN3gmx12formatStringB5cxx11EPKcz(ptr dead_on_unwind nonnull writable sret(%"class.std::__cxx11::basic_string") align 8 %2, ptr noundef nonnull @.str.1, ptr noundef %8, ptr noundef %8)
          to label %25 unwind label %37

25:                                               ; preds = %24
  %26 = load ptr, ptr %2, align 8, !tbaa !12
  %27 = invoke noundef ptr @_Z10gmx_strdupPKc(ptr noundef %26)
          to label %28 unwind label %39

28:                                               ; preds = %25
  store ptr %27, ptr %0, align 8, !tbaa !4
  %29 = load ptr, ptr %2, align 8, !tbaa !12
  %30 = getelementptr inbounds nuw i8, ptr %2, i64 16
  %31 = icmp eq ptr %29, %30
  br i1 %31, label %_ZNKSt7__cxx1112basic_stringIcSt11char_traitsIcESaIcEE11_M_is_localEv.exit.thread.i.i, label %_ZNKSt7__cxx1112basic_stringIcSt11char_traitsIcESaIcEE11_M_is_localEv.exit.i.i

_ZNKSt7__cxx1112basic_stringIcSt11char_traitsIcESaIcEE11_M_is_localEv.exit.thread.i.i: ; preds = %28
  %32 = getelementptr inbounds nuw i8, ptr %2, i64 8
  %33 = load i64, ptr %32, align 8, !tbaa !16
  %34 = icmp ult i64 %33, 16
  call void @llvm.assume(i1 %34)
  br label %_ZNSt7__cxx1112basic_stringIcSt11char_traitsIcESaIcEED2Ev.exit

_ZNKSt7__cxx1112basic_stringIcSt11char_traitsIcESaIcEE11_M_is_localEv.exit.i.i: ; preds = %28
  %35 = load i64, ptr %30, align 8, !tbaa !11
  %36 = add i64 %35, 1
  call void @_ZdlPvm(ptr noundef %29, i64 noundef %36) #14
  br label %_ZNSt7__cxx1112basic_stringIcSt11char_traitsIcESaIcEED2Ev.exit

_ZNSt7__cxx1112basic_stringIcSt11char_traitsIcESaIcEED2Ev.exit: ; preds = %_ZNKSt7__cxx1112basic_stringIcSt11char_traitsIcESaIcEE11_M_is_localEv.exit.thread.i.i, %_ZNKSt7__cxx1112basic_stringIcSt11char_traitsIcESaIcEE11_M_is_localEv.exit.i.i
  call void @llvm.lifetime.end.p0(i64 32, ptr nonnull %2) #12
  br label %56

37:                                               ; preds = %24
  %38 = landingpad { ptr, i32 }
          cleanup
          catch ptr @_ZTISt9exception
  br label %_ZNSt7__cxx1112basic_stringIcSt11char_traitsIcESaIcEED2Ev.exit26

39:                                               ; preds = %25
  %40 = landingpad { ptr, i32 }
          cleanup
          catch ptr @_ZTISt9exception
  %41 = load ptr, ptr %2, align 8, !tbaa !12
  %42 = getelementptr inbounds nuw i8, ptr %2, i64 16
  %43 = icmp eq ptr %41, %42
  br i1 %43, label %_ZNKSt7__cxx1112basic_stringIcSt11char_traitsIcESaIcEE11_M_is_localEv.exit.thread.i.i25, label %_ZNKSt7__cxx1112basic_stringIcSt11char_traitsIcESaIcEE11_M_is_localEv.exit.i.i24

_ZNKSt7__cxx1112basic_stringIcSt11char_traitsIcESaIcEE11_M_is_localEv.exit.thread.i.i25: ; preds = %39
  %44 = getelementptr inbounds nuw i8, ptr %2, i64 8
  %45 = load i64, ptr %44, align 8, !tbaa !16
  %46 = icmp ult i64 %45, 16
  call void @llvm.assume(i1 %46)
  br label %_ZNSt7__cxx1112basic_stringIcSt11char_traitsIcESaIcEED2Ev.exit26

_ZNKSt7__cxx1112basic_stringIcSt11char_traitsIcESaIcEE11_M_is_localEv.exit.i.i24: ; preds = %39
  %47 = load i64, ptr %42, align 8, !tbaa !11
  %48 = add i64 %47, 1
  call void @_ZdlPvm(ptr noundef %41, i64 noundef %48) #14
  br label %_ZNSt7__cxx1112basic_stringIcSt11char_traitsIcESaIcEED2Ev.exit26

_ZNSt7__cxx1112basic_stringIcSt11char_traitsIcESaIcEED2Ev.exit26: ; preds = %_ZNKSt7__cxx1112basic_stringIcSt11char_traitsIcESaIcEE11_M_is_localEv.exit.i.i24, %_ZNKSt7__cxx1112basic_stringIcSt11char_traitsIcESaIcEE11_M_is_localEv.exit.thread.i.i25, %37
  %.pn = phi { ptr, i32 } [ %38, %37 ], [ %40, %_ZNKSt7__cxx1112basic_stringIcSt11char_traitsIcESaIcEE11_M_is_localEv.exit.thread.i.i25 ], [ %40, %_ZNKSt7__cxx1112basic_stringIcSt11char_traitsIcESaIcEE11_M_is_localEv.exit.i.i24 ]
  %.117 = extractvalue { ptr, i32 } %.pn, 1
  call void @llvm.lifetime.end.p0(i64 32, ptr nonnull %2) #12
  %49 = call i32 @llvm.eh.typeid.for.p0(ptr nonnull @_ZTISt9exception) #12
  %50 = icmp eq i32 %.117, %49
  br i1 %50, label %51, label %57

51:                                               ; preds = %_ZNSt7__cxx1112basic_stringIcSt11char_traitsIcESaIcEED2Ev.exit26
  %.1 = extractvalue { ptr, i32 } %.pn, 0
  %52 = call ptr @__cxa_begin_catch(ptr %.1) #12
  invoke void @_ZN3gmx28processExceptionAsFatalErrorERKSt9exception(ptr noundef nonnull align 8 dereferenceable(8) %52) #13
          to label %53 unwind label %54

53:                                               ; preds = %51
  unreachable

54:                                               ; preds = %51
  %55 = landingpad { ptr, i32 }
          cleanup
  invoke void @__cxa_end_catch()
          to label %57 unwind label %58

56:                                               ; preds = %_ZNSt7__cxx1112basic_stringIcSt11char_traitsIcESaIcEED2Ev.exit, %22, %9
  %.0 = phi i1 [ false, %_ZNSt7__cxx1112basic_stringIcSt11char_traitsIcESaIcEED2Ev.exit ], [ true, %22 ], [ true, %9 ]
  ret i1 %.0

57:                                               ; preds = %_ZNSt7__cxx1112basic_stringIcSt11char_traitsIcESaIcEED2Ev.exit26, %54, %20, %11
  %.merged = phi { ptr, i32 } [ %12, %11 ], [ %21, %20 ], [ %.pn, %_ZNSt7__cxx1112basic_stringIcSt11char_traitsIcESaIcEED2Ev.exit26 ], [ %55, %54 ]
  resume { ptr, i32 } %.merged

58:                                               ; preds = %54, %20
  %59 = landingpad { ptr, i32 }
          catch ptr null
  %60 = extractvalue { ptr, i32 } %59, 0
  call void @__clang_call_terminate(ptr %60) #15
  unreachable
}